#include <math.h>
#include <stdio.h>
#include <stdlib.h>
#include <string.h>



int main()
{
	char a[101];
	while(gets(a))
	{
		printf("%s\n",a);
		int l=strlen(a);
		int i,j;
		int flag=1;
		while(flag==1)
		{	
		flag=0;
		for(i=0;i<l;i++)
		{
			if(a[i]=='(')
			{
				for(j=i+1;j<l;j++)
				{
					if(a[j]==')') {a[i]='a';a[j]='a';flag=1;break;}
					if(a[j]=='(') {i=j;}
				}
				if(flag==1) break;
			}
		}
		}
		for(i=0;i<l;i++)
		{
			if(a[i]=='(') printf("$");
			else if(a[i]==')') printf("?");
			else printf(" ");
		}
		printf("\n");
	}
}